; Function Attrs: mustprogress nounwind uwtable
define dso_local void @_ZN4llvm23ObjectSizeOffsetVisitor5alignENS_5APIntENS_10MaybeAlignE(ptr dead_on_unwind noalias writable sret(%"class.llvm::APInt") align 8 %0, ptr nocapture noundef nonnull readonly align 8 dereferenceable(388) %1, ptr nocapture noundef %2, i16 %3) local_unnamed_addr #0 align 2 {
  %5 = getelementptr inbounds i8, ptr %1, i64 17
  %6 = load i8, ptr %5, align 1
  %7 = trunc i8 %6 to i1
  %8 = and i16 %3, 256
  %.not = icmp ne i16 %8, 0
  %or.cond.not = select i1 %7, i1 %.not, i1 false
  br i1 %or.cond.not, label %9, label %34

9:                                                ; preds = %4
  %10 = getelementptr inbounds nuw i8, ptr %1, i64 32
  %11 = load i32, ptr %10, align 8
  %12 = getelementptr inbounds nuw i8, ptr %2, i64 8
  %13 = load i32, ptr %12, align 8
  %14 = icmp ult i32 %13, 65
  %15 = load ptr, ptr %2, align 8
  %.0.in.i = select i1 %14, ptr %2, ptr %15
  %.0.i = load i64, ptr %.0.in.i, align 8
  %16 = and i16 %3, 255
  %17 = zext nneg i16 %16 to i64
  %18 = shl nuw i64 1, %17
  %19 = add i64 %18, -1
  %20 = add i64 %19, %.0.i
  %21 = sub i64 0, %18
  %22 = and i64 %20, %21
  %23 = getelementptr inbounds nuw i8, ptr %0, i64 8
  store i32 %11, ptr %23, align 8
  %24 = icmp ult i32 %11, 65
  br i1 %24, label %25, label %33

25:                                               ; preds = %9
  %26 = add nuw nsw i32 %11, 63
  %27 = and i32 %26, 63
  %28 = xor i32 %27, 63
  %29 = zext nneg i32 %28 to i64
  %30 = lshr i64 -1, %29
  %31 = icmp eq i32 %11, 0
  %spec.store.select.i.i = select i1 %31, i64 0, i64 %30
  %32 = and i64 %22, %spec.store.select.i.i
  store i64 %32, ptr %0, align 8
  br label %_ZN4llvm5APIntC2Ejmbb.exit

33:                                               ; preds = %9
  tail call void @_ZN4llvm5APInt12initSlowCaseEmb(ptr noundef nonnull align 8 dereferenceable(12) %0, i64 noundef %22, i1 noundef zeroext false) #20
  br label %_ZN4llvm5APIntC2Ejmbb.exit

34:                                               ; preds = %4
  %35 = getelementptr inbounds nuw i8, ptr %0, i64 8
  %36 = getelementptr inbounds nuw i8, ptr %2, i64 8
  %37 = load i32, ptr %36, align 8
  store i32 %37, ptr %35, align 8
  %38 = load i64, ptr %2, align 8
  store i64 %38, ptr %0, align 8
  store i32 0, ptr %36, align 8
  br label %_ZN4llvm5APIntC2Ejmbb.exit

_ZN4llvm5APIntC2Ejmbb.exit:                       ; preds = %33, %25, %34
  ret void
}